target datalayout = "e-m:e-p270:32:32-p271:32:32-p272:64:64-i64:64-i128:128-f80:128-n8:16:32:64-S128"
target triple = "x86_64-pc-linux-gnu"

%struct.Vmem = type { ptr, i64, i64 }
%struct.GenContext_ = type { i8, ptr, ptr, ptr, ptr, ptr, ptr, ptr, ptr, ptr, ptr, ptr, ptr, ptr, ptr, ptr, ptr, ptr, ptr, ptr, ptr, ptr, ptr, ptr, ptr, ptr, ptr, ptr, ptr, ptr, ptr, ptr, ptr, %struct.anon.85, i32, i32, %struct.DebugContext, ptr, ptr, ptr, %struct.BEValue, i8, %union.SourceSpan, ptr, ptr, ptr, ptr }
%struct.anon.85 = type { ptr, ptr, ptr }
%struct.DebugContext = type { i16, ptr, ptr, %struct.DebugFile_, ptr, ptr, ptr, ptr }
%struct.DebugFile_ = type { i16, ptr }
%struct.BEValue = type { i8, i32, ptr, ptr, ptr }
%union.SourceSpan = type { i64 }
%struct.Decl_ = type { ptr, ptr, %union.SourceSpan, i64, %union.anon, i32, %union.anon.0, i64, ptr, ptr, ptr, %union.anon.1 }
%union.anon = type { ptr }
%union.anon.0 = type { i16 }
%union.anon.1 = type { %struct.FuncDecl }
%struct.FuncDecl = type { i32, [4 x i8], %struct.Signature_, i32, i32, %union.anon.8 }
%struct.Signature_ = type <{ %struct.CalleeAttributes, i16, i8, i32, i32, [4 x i8], ptr }>
%struct.CalleeAttributes = type { i8 }
%union.anon.8 = type { %struct.anon.9 }
%struct.anon.9 = type { i16, %union.anon.10 }
%union.anon.10 = type { ptr }
%struct.Type_ = type { i32, ptr, ptr, ptr, %union.anon.86, ptr, ptr, %union.anon.88 }
%union.anon.86 = type { ptr }
%union.anon.88 = type { %struct.TypeFunction }
%struct.TypeFunction = type { ptr, ptr, ptr }
%struct.VarDecl_ = type { i32, i32, %union.anon.14, %union.anon.15 }
%union.anon.14 = type { ptr }
%union.anon.15 = type { %struct.anon.16 }
%struct.anon.16 = type { ptr, %union.SourceSpan }
%struct.TypeInfo_ = type { i16, ptr, %union.SourceSpan, %union.anon.56 }
%union.anon.56 = type { %struct.anon.57 }
%struct.anon.57 = type { ptr, ptr }
%struct.Expr_ = type { ptr, %union.SourceSpan, i16, %union.anon.29 }
%union.anon.29 = type { %struct.ExprAnySwitch }
%struct.ExprAnySwitch = type { i8, %union.anon.31 }
%union.anon.31 = type { %struct.anon.32 }
%struct.anon.32 = type { ptr, %union.SourceSpan, ptr }
%struct.VHeader_ = type { i32, i32, [0 x i8] }

@type_bool = external global ptr, align 8
@type_info_arena = external global %struct.Vmem, align 8

; Function Attrs: nounwind uwtable
define internal ptr @type_infoptr(i32 noundef %0) #0 {
  %2 = alloca i32, align 4
  store i32 %0, ptr %2, align 4
  %3 = load ptr, ptr @type_info_arena, align 8
  %4 = load i32, ptr %2, align 4
  %5 = zext i32 %4 to i64
  %6 = getelementptr inbounds %struct.TypeInfo_, ptr %3, i64 %5
  ret ptr %6
}

; Function Attrs: nounwind uwtable
define internal void @llvm_emit_decl_expr_list(ptr noundef %0, ptr noundef %1, ptr noundef %2, i1 noundef zeroext %3) #0 {
  %5 = alloca i32, align 4
  %6 = alloca i32, align 4
  %7 = alloca ptr, align 8
  %8 = alloca ptr, align 8
  %9 = alloca ptr, align 8
  %10 = alloca ptr, align 8
  %11 = alloca ptr, align 8
  %12 = alloca i8, align 1
  %13 = alloca i64, align 8
  %14 = alloca i64, align 8
  %15 = alloca i64, align 8
  %16 = alloca %struct.BEValue, align 8
  %17 = alloca ptr, align 8
  %18 = alloca ptr, align 8
  %19 = alloca ptr, align 8
  %20 = alloca i32, align 4
  store ptr %0, ptr %9, align 8
  store ptr %1, ptr %10, align 8
  store ptr %2, ptr %11, align 8
  %21 = zext i1 %3 to i8
  store i8 %21, ptr %12, align 1
  %22 = load ptr, ptr %11, align 8
  %23 = getelementptr inbounds %struct.Expr_, ptr %22, i32 0, i32 3
  %24 = load ptr, ptr %23, align 8
  store ptr %24, ptr %7, align 8
  %25 = load ptr, ptr %7, align 8
  %26 = icmp ne ptr %25, null
  br i1 %26, label %28, label %27

27:                                               ; preds = %4
  store i32 0, ptr %6, align 4
  br label %33

28:                                               ; preds = %4
  %29 = load ptr, ptr %7, align 8
  store ptr %29, ptr %8, align 8
  %30 = load ptr, ptr %8, align 8
  %31 = getelementptr inbounds %struct.VHeader_, ptr %30, i64 -1
  %32 = load i32, ptr %31, align 4
  store i32 %32, ptr %6, align 4
  br label %33

33:                                               ; preds = %28, %27
  %34 = load i32, ptr %6, align 4
  %35 = zext i32 %34 to i64
  store i64 %35, ptr %13, align 8
  %36 = load i64, ptr %13, align 8
  %37 = sub i64 %36, 1
  store i64 %37, ptr %14, align 8
  store i64 0, ptr %15, align 8
  br label %38

38:                                               ; preds = %50, %33
  %39 = load i64, ptr %15, align 8
  %40 = load i64, ptr %14, align 8
  %41 = icmp ult i64 %39, %40
  br i1 %41, label %42, label %53

42:                                               ; preds = %38
  %43 = load ptr, ptr %9, align 8
  %44 = load ptr, ptr %11, align 8
  %45 = getelementptr inbounds %struct.Expr_, ptr %44, i32 0, i32 3
  %46 = load ptr, ptr %45, align 8
  %47 = load i64, ptr %15, align 8
  %48 = getelementptr inbounds ptr, ptr %46, i64 %47
  %49 = load ptr, ptr %48, align 8
  call void @llvm_emit_expr(ptr noundef %43, ptr noundef %16, ptr noundef %49)
  br label %50

50:                                               ; preds = %42
  %51 = load i64, ptr %15, align 8
  %52 = add i64 %51, 1
  store i64 %52, ptr %15, align 8
  br label %38, !llvm.loop !11

53:                                               ; preds = %38
  %54 = load ptr, ptr %11, align 8
  %55 = getelementptr inbounds %struct.Expr_, ptr %54, i32 0, i32 3
  %56 = load ptr, ptr %55, align 8
  %57 = load i64, ptr %14, align 8
  %58 = getelementptr inbounds ptr, ptr %56, i64 %57
  %59 = load ptr, ptr %58, align 8
  store ptr %59, ptr %17, align 8
  %60 = load ptr, ptr %17, align 8
  %61 = getelementptr inbounds %struct.Expr_, ptr %60, i32 0, i32 0
  %62 = load ptr, ptr %61, align 8
  store ptr %62, ptr %18, align 8
  %63 = load ptr, ptr %9, align 8
  %64 = load ptr, ptr %10, align 8
  %65 = load ptr, ptr %17, align 8
  call void @llvm_emit_expr(ptr noundef %63, ptr noundef %64, ptr noundef %65)
  %66 = load ptr, ptr %17, align 8
  %67 = getelementptr inbounds %struct.Expr_, ptr %66, i32 0, i32 2
  %68 = load i16, ptr %67, align 8
  %69 = and i16 %68, 255
  %70 = zext i16 %69 to i32
  %71 = icmp eq i32 %70, 23
  br i1 %71, label %72, label %116

72:                                               ; preds = %53
  %73 = load ptr, ptr %17, align 8
  %74 = getelementptr inbounds %struct.Expr_, ptr %73, i32 0, i32 3
  %75 = load ptr, ptr %74, align 8
  %76 = getelementptr inbounds %struct.Decl_, ptr %75, i32 0, i32 11
  %77 = getelementptr inbounds %struct.VarDecl_, ptr %76, i32 0, i32 1
  %78 = load i32, ptr %77, align 4
  store i32 %78, ptr %5, align 4
  %79 = load i32, ptr %5, align 4
  %80 = icmp ne i32 %79, 0
  br i1 %80, label %81, label %86

81:                                               ; preds = %72
  %82 = load i32, ptr %5, align 4
  %83 = call ptr @type_infoptr(i32 noundef %82)
  %84 = getelementptr inbounds %struct.TypeInfo_, ptr %83, i32 0, i32 1
  %85 = load ptr, ptr %84, align 8
  br label %87

86:                                               ; preds = %72
  br label %87

87:                                               ; preds = %86, %81
  %88 = phi ptr [ %85, %81 ], [ null, %86 ]
  store ptr %88, ptr %18, align 8
  %89 = load ptr, ptr %9, align 8
  %90 = load ptr, ptr %17, align 8
  %91 = getelementptr inbounds %struct.Expr_, ptr %90, i32 0, i32 3
  %92 = load ptr, ptr %91, align 8
  %93 = call ptr @llvm_get_ref(ptr noundef %89, ptr noundef %92)
  store ptr %93, ptr %19, align 8
  %94 = load i8, ptr %12, align 1
  %95 = trunc i8 %94 to i1
  br i1 %95, label %96, label %112

96:                                               ; preds = %87
  %97 = load ptr, ptr %17, align 8
  %98 = getelementptr inbounds %struct.Expr_, ptr %97, i32 0, i32 3
  %99 = load ptr, ptr %98, align 8
  %100 = getelementptr inbounds %struct.Decl_, ptr %99, i32 0, i32 11
  %101 = load i32, ptr %100, align 8
  %102 = lshr i32 %101, 8
  %103 = and i32 %102, 1
  %104 = trunc i32 %103 to i1
  br i1 %104, label %105, label %112

105:                                              ; preds = %96
  %106 = load ptr, ptr %10, align 8
  %107 = load ptr, ptr %9, align 8
  %108 = getelementptr inbounds %struct.GenContext_, ptr %107, i32 0, i32 20
  %109 = load ptr, ptr %108, align 8
  %110 = call ptr @LLVMConstInt(ptr noundef %109, i64 noundef 1, i32 noundef 0)
  %111 = load ptr, ptr @type_bool, align 8
  call void @llvm_value_set(ptr noundef %106, ptr noundef %110, ptr noundef %111)
  br label %136

112:                                              ; preds = %96, %87
  %113 = load ptr, ptr %10, align 8
  %114 = load ptr, ptr %19, align 8
  %115 = load ptr, ptr %18, align 8
  call void @llvm_value_set_address_abi_aligned(ptr noundef %113, ptr noundef %114, ptr noundef %115)
  br label %116

116:                                              ; preds = %112, %53
  %117 = load i8, ptr %12, align 1
  %118 = trunc i8 %117 to i1
  br i1 %118, label %119, label %136

119:                                              ; preds = %116
  %120 = load ptr, ptr %18, align 8
  %121 = call ptr @type_lowering(ptr noundef %120)
  store ptr %121, ptr %18, align 8
  %122 = load ptr, ptr %18, align 8
  %123 = getelementptr inbounds %struct.Type_, ptr %122, i32 0, i32 0
  %124 = load i32, ptr %123, align 8
  %125 = icmp ne i32 %124, 2
  br i1 %125, label %126, label %135

126:                                              ; preds = %119
  %127 = load ptr, ptr %18, align 8
  %128 = call i32 @cast_to_bool_kind(ptr noundef %127)
  store i32 %128, ptr %20, align 4
  %129 = load ptr, ptr %9, align 8
  %130 = load i32, ptr %20, align 4
  %131 = load ptr, ptr %17, align 8
  %132 = load ptr, ptr %10, align 8
  %133 = load ptr, ptr @type_bool, align 8
  %134 = load ptr, ptr %18, align 8
  call void @llvm_emit_cast(ptr noundef %129, i32 noundef %130, ptr noundef %131, ptr noundef %132, ptr noundef %133, ptr noundef %134)
  br label %135

135:                                              ; preds = %126, %119
  br label %136

136:                                              ; preds = %135, %116, %105
  ret void
}