; Function Attrs: nounwind uwtable
define internal fastcc void @llvm_emit_decl_expr_list(ptr noundef %0, ptr noundef %1, ptr nocapture noundef readonly %2, i1 noundef zeroext %3) unnamed_addr #0 {
  %5 = alloca %struct.BEValue, align 8
  %6 = getelementptr inbounds i8, ptr %2, i64 24
  %7 = load ptr, ptr %6, align 8
  %.not = icmp eq ptr %7, null
  br i1 %.not, label %.lr.ph.preheader, label %8

8:                                                ; preds = %4
  %9 = getelementptr inbounds i8, ptr %7, i64 -8
  %10 = load i32, ptr %9, align 4
  %11 = zext i32 %10 to i64
  %12 = add nsw i64 %11, -1
  %.not48 = icmp eq i64 %12, 0
  br i1 %.not48, label %._crit_edge, label %.lr.ph.preheader

.lr.ph.preheader:                                 ; preds = %4, %8
  %.051 = phi i64 [ %12, %8 ], [ -1, %4 ]
  br label %.lr.ph

.lr.ph:                                           ; preds = %.lr.ph.preheader, %.lr.ph
  %.03947 = phi i64 [ %16, %.lr.ph ], [ 0, %.lr.ph.preheader ]
  %13 = load ptr, ptr %6, align 8
  %14 = getelementptr inbounds ptr, ptr %13, i64 %.03947
  %15 = load ptr, ptr %14, align 8
  call void @llvm_emit_expr(ptr noundef %0, ptr noundef nonnull %5, ptr noundef %15) #9
  %16 = add nuw i64 %.03947, 1
  %exitcond.not = icmp eq i64 %16, %.051
  br i1 %exitcond.not, label %._crit_edge.loopexit, label %.lr.ph, !llvm.loop !11

._crit_edge.loopexit:                             ; preds = %.lr.ph
  %.pre = load ptr, ptr %6, align 8
  br label %._crit_edge

._crit_edge:                                      ; preds = %._crit_edge.loopexit, %8
  %.052 = phi i64 [ %.051, %._crit_edge.loopexit ], [ 0, %8 ]
  %17 = phi ptr [ %.pre, %._crit_edge.loopexit ], [ %7, %8 ]
  %18 = getelementptr inbounds ptr, ptr %17, i64 %.052
  %19 = load ptr, ptr %18, align 8
  %20 = load ptr, ptr %19, align 8
  call void @llvm_emit_expr(ptr noundef %0, ptr noundef %1, ptr noundef nonnull %19) #9
  %21 = getelementptr inbounds i8, ptr %19, i64 16
  %22 = load i16, ptr %21, align 8
  %23 = and i16 %22, 255
  %24 = icmp eq i16 %23, 23
  br i1 %24, label %25, label %49

25:                                               ; preds = %._crit_edge
  %26 = getelementptr inbounds i8, ptr %19, i64 24
  %27 = load ptr, ptr %26, align 8
  %28 = getelementptr inbounds i8, ptr %27, i64 84
  %29 = load i32, ptr %28, align 4
  %.not44 = icmp eq i32 %29, 0
  br i1 %.not44, label %35, label %30

30:                                               ; preds = %25
  %31 = load ptr, ptr @type_info_arena, align 8
  %32 = zext i32 %29 to i64
  %33 = getelementptr inbounds %struct.TypeInfo_, ptr %31, i64 %32, i32 1
  %34 = load ptr, ptr %33, align 8
  br label %35

35:                                               ; preds = %25, %30
  %36 = phi ptr [ %34, %30 ], [ null, %25 ]
  %37 = call ptr @llvm_get_ref(ptr noundef %0, ptr noundef nonnull %27) #9
  br i1 %3, label %38, label %48

38:                                               ; preds = %35
  %39 = load ptr, ptr %26, align 8
  %40 = getelementptr inbounds i8, ptr %39, i64 80
  %41 = load i32, ptr %40, align 8
  %42 = and i32 %41, 256
  %.not45 = icmp eq i32 %42, 0
  br i1 %.not45, label %48, label %43

43:                                               ; preds = %38
  %44 = getelementptr inbounds i8, ptr %0, i64 160
  %45 = load ptr, ptr %44, align 8
  %46 = call ptr @LLVMConstInt(ptr noundef %45, i64 noundef 1, i32 noundef 0) #9
  %47 = load ptr, ptr @type_bool, align 8
  call void @llvm_value_set(ptr noundef %1, ptr noundef %46, ptr noundef %47) #9
  br label %56

48:                                               ; preds = %38, %35
  call void @llvm_value_set_address_abi_aligned(ptr noundef %1, ptr noundef %37, ptr noundef %36) #9
  br label %49

49:                                               ; preds = %48, %._crit_edge
  %.040 = phi ptr [ %36, %48 ], [ %20, %._crit_edge ]
  br i1 %3, label %50, label %56

50:                                               ; preds = %49
  %51 = call fastcc ptr @type_lowering(ptr noundef %.040)
  %52 = load i32, ptr %51, align 8
  %.not46 = icmp eq i32 %52, 2
  br i1 %.not46, label %56, label %53

53:                                               ; preds = %50
  %54 = call i32 @cast_to_bool_kind(ptr noundef nonnull %51) #9
  %55 = load ptr, ptr @type_bool, align 8
  call void @llvm_emit_cast(ptr noundef %0, i32 noundef %54, ptr noundef nonnull %19, ptr noundef %1, ptr noundef %55, ptr noundef nonnull %51) #9
  br label %56

56:                                               ; preds = %50, %53, %49, %43
  ret void
}